; Function Attrs: mustprogress uwtable
define noundef i32 @_ZNK7testing8UnitTest17failed_test_countEv(ptr nocapture noundef nonnull readonly align 8 dereferenceable(72) %this) local_unnamed_addr #3 align 2 {
entry:
  %impl_.i = getelementptr inbounds i8, ptr %this, i64 64
  %0 = load ptr, ptr %impl_.i, align 8
  %test_cases_.i = getelementptr inbounds i8, ptr %0, i64 184
  %_M_finish.i.i.i = getelementptr inbounds i8, ptr %0, i64 192
  %1 = load ptr, ptr %_M_finish.i.i.i, align 8
  %2 = load ptr, ptr %test_cases_.i, align 8
  %cmp9.not.i.i = icmp eq ptr %1, %2
  br i1 %cmp9.not.i.i, label %_ZNK7testing8internal12UnitTestImpl17failed_test_countEv.exit, label %for.body.us.i.preheader.i

for.body.us.i.preheader.i:                        ; preds = %entry
  %sub.ptr.lhs.cast.i.us.i.i = ptrtoint ptr %1 to i64
  %sub.ptr.rhs.cast.i.us.i.i = ptrtoint ptr %2 to i64
  %sub.ptr.sub.i.us.i.i = sub i64 %sub.ptr.lhs.cast.i.us.i.i, %sub.ptr.rhs.cast.i.us.i.i
  %sub.ptr.div.i.us.i.i = ashr exact i64 %sub.ptr.sub.i.us.i.i, 3
  %umax.i = tail call i64 @llvm.umax.i64(i64 %sub.ptr.div.i.us.i.i, i64 1)
  br label %for.body.us.i.i

for.body.us.i.i:                                  ; preds = %_ZNK7testing8TestCase17failed_test_countEv.exit.i, %for.body.us.i.preheader.i
  %i.011.us.i.i = phi i64 [ %inc.us.i.i, %_ZNK7testing8TestCase17failed_test_countEv.exit.i ], [ 0, %for.body.us.i.preheader.i ]
  %sum.010.us.i.i = phi i32 [ %add.us.i.i, %_ZNK7testing8TestCase17failed_test_countEv.exit.i ], [ 0, %for.body.us.i.preheader.i ]
  %add.ptr.i.us.i.i = getelementptr inbounds ptr, ptr %2, i64 %i.011.us.i.i
  %3 = load ptr, ptr %add.ptr.i.us.i.i, align 8
  %test_info_list_.i.i = getelementptr inbounds i8, ptr %3, i64 48
  %4 = load ptr, ptr %test_info_list_.i.i, align 8
  %_M_finish.i.i.i.i = getelementptr inbounds i8, ptr %3, i64 56
  %5 = load ptr, ptr %_M_finish.i.i.i.i, align 8
  %cmp.i.not5.i.i.i = icmp eq ptr %4, %5
  br i1 %cmp.i.not5.i.i.i, label %_ZNK7testing8TestCase17failed_test_countEv.exit.i, label %for.body.i.i.i

for.body.i.i.i:                                   ; preds = %for.body.us.i.i, %_ZN7testing8TestCase10TestFailedEPKNS_8TestInfoE.exit.i.i
  %count.07.i.i.i = phi i32 [ %spec.select.i.i.i, %_ZN7testing8TestCase10TestFailedEPKNS_8TestInfoE.exit.i.i ], [ 0, %for.body.us.i.i ]
  %it.sroa.0.06.i.i.i = phi ptr [ %incdec.ptr.i.i.i.i, %_ZN7testing8TestCase10TestFailedEPKNS_8TestInfoE.exit.i.i ], [ %4, %for.body.us.i.i ]
  %6 = load ptr, ptr %it.sroa.0.06.i.i.i, align 8
  %should_run_.i.i.i.i = getelementptr inbounds i8, ptr %6, i64 128
  %7 = load i8, ptr %should_run_.i.i.i.i, align 8
  %8 = and i8 %7, 1
  %tobool.i.not.i.i.i = icmp eq i8 %8, 0
  br i1 %tobool.i.not.i.i.i, label %_ZN7testing8TestCase10TestFailedEPKNS_8TestInfoE.exit.i.i, label %land.rhs.i.i.i

land.rhs.i.i.i:                                   ; preds = %for.body.i.i.i
  %test_part_results_.i.i.i.i.i = getelementptr inbounds i8, ptr %6, i64 200
  %_M_finish.i.i.i.i.i.i = getelementptr inbounds i8, ptr %6, i64 208
  %9 = load ptr, ptr %_M_finish.i.i.i.i.i.i, align 8
  %10 = load ptr, ptr %test_part_results_.i.i.i.i.i, align 8
  %sub.ptr.lhs.cast.i.i.i.i.i.i = ptrtoint ptr %9 to i64
  %sub.ptr.rhs.cast.i.i.i.i.i.i = ptrtoint ptr %10 to i64
  %sub.ptr.sub.i.i.i.i.i.i = sub i64 %sub.ptr.lhs.cast.i.i.i.i.i.i, %sub.ptr.rhs.cast.i.i.i.i.i.i
  %sub.ptr.div.i.i.i.i.i.i = sdiv exact i64 %sub.ptr.sub.i.i.i.i.i.i, 112
  %conv.i.i.i.i.i = trunc i64 %sub.ptr.div.i.i.i.i.i.i to i32
  %cmp6.i.i.i.i = icmp sgt i32 %conv.i.i.i.i.i, 0
  br i1 %cmp6.i.i.i.i, label %if.end.i.preheader.i.i.i.i, label %_ZN7testing8TestCase10TestFailedEPKNS_8TestInfoE.exit.i.i

if.end.i.preheader.i.i.i.i:                       ; preds = %land.rhs.i.i.i
  %11 = and i64 %sub.ptr.div.i.i.i.i.i.i, 2147483647
  br label %if.end.i.i.i.i.i

for.cond.i.i.i.i:                                 ; preds = %_ZNK7testing10TestResult17GetTestPartResultEi.exit.i.i.i.i
  %indvars.iv.next.i.i.i.i = add nuw nsw i64 %indvars.iv.i.i.i.i, 1
  %cmp.i.i.i.i = icmp ult i64 %indvars.iv.next.i.i.i.i, %11
  %exitcond11.not.i.i.i.i = icmp eq i64 %indvars.iv.next.i.i.i.i, %11
  br i1 %exitcond11.not.i.i.i.i, label %_ZN7testing8TestCase10TestFailedEPKNS_8TestInfoE.exit.i.i, label %if.end.i.i.i.i.i, !llvm.loop !38

if.end.i.i.i.i.i:                                 ; preds = %for.cond.i.i.i.i, %if.end.i.preheader.i.i.i.i
  %indvars.iv.i.i.i.i = phi i64 [ 0, %if.end.i.preheader.i.i.i.i ], [ %indvars.iv.next.i.i.i.i, %for.cond.i.i.i.i ]
  %cmp8.i.i.i.i = phi i1 [ true, %if.end.i.preheader.i.i.i.i ], [ %cmp.i.i.i.i, %for.cond.i.i.i.i ]
  %exitcond.not.i.i.i.i = icmp eq i64 %indvars.iv.i.i.i.i, %sub.ptr.div.i.i.i.i.i.i
  br i1 %exitcond.not.i.i.i.i, label %if.then.i.i.i.i.i.i.i, label %_ZNK7testing10TestResult17GetTestPartResultEi.exit.i.i.i.i

if.then.i.i.i.i.i.i.i:                            ; preds = %if.end.i.i.i.i.i
  tail call void (ptr, ...) @_ZSt24__throw_out_of_range_fmtPKcz(ptr noundef nonnull @.str.421, i64 noundef %sub.ptr.div.i.i.i.i.i.i, i64 noundef %sub.ptr.div.i.i.i.i.i.i) #49
  unreachable

_ZNK7testing10TestResult17GetTestPartResultEi.exit.i.i.i.i: ; preds = %if.end.i.i.i.i.i
  %add.ptr.i.i.i.i.i.i.i = getelementptr inbounds %"class.testing::TestPartResult", ptr %10, i64 %indvars.iv.i.i.i.i
  %12 = load i32, ptr %add.ptr.i.i.i.i.i.i.i, align 8
  %cmp.i.not.i.i.i.i = icmp eq i32 %12, 0
  br i1 %cmp.i.not.i.i.i.i, label %for.cond.i.i.i.i, label %_ZN7testing8TestCase10TestFailedEPKNS_8TestInfoE.exit.i.i

_ZN7testing8TestCase10TestFailedEPKNS_8TestInfoE.exit.i.i: ; preds = %_ZNK7testing10TestResult17GetTestPartResultEi.exit.i.i.i.i, %for.cond.i.i.i.i, %land.rhs.i.i.i, %for.body.i.i.i
  %13 = phi i1 [ false, %for.body.i.i.i ], [ false, %land.rhs.i.i.i ], [ %cmp.i.i.i.i, %for.cond.i.i.i.i ], [ %cmp8.i.i.i.i, %_ZNK7testing10TestResult17GetTestPartResultEi.exit.i.i.i.i ]
  %inc.i.i.i = zext i1 %13 to i32
  %spec.select.i.i.i = add nuw nsw i32 %count.07.i.i.i, %inc.i.i.i
  %incdec.ptr.i.i.i.i = getelementptr inbounds i8, ptr %it.sroa.0.06.i.i.i, i64 8
  %cmp.i.not.i.i.i = icmp eq ptr %incdec.ptr.i.i.i.i, %5
  br i1 %cmp.i.not.i.i.i, label %_ZNK7testing8TestCase17failed_test_countEv.exit.i, label %for.body.i.i.i, !llvm.loop !39

_ZNK7testing8TestCase17failed_test_countEv.exit.i: ; preds = %_ZN7testing8TestCase10TestFailedEPKNS_8TestInfoE.exit.i.i, %for.body.us.i.i
  %count.0.lcssa.i.i.i = phi i32 [ 0, %for.body.us.i.i ], [ %spec.select.i.i.i, %_ZN7testing8TestCase10TestFailedEPKNS_8TestInfoE.exit.i.i ]
  %add.us.i.i = add nsw i32 %count.0.lcssa.i.i.i, %sum.010.us.i.i
  %inc.us.i.i = add nuw i64 %i.011.us.i.i, 1
  %exitcond.not.i = icmp eq i64 %inc.us.i.i, %umax.i
  br i1 %exitcond.not.i, label %_ZNK7testing8internal12UnitTestImpl17failed_test_countEv.exit, label %for.body.us.i.i, !llvm.loop !41

_ZNK7testing8internal12UnitTestImpl17failed_test_countEv.exit: ; preds = %_ZNK7testing8TestCase17failed_test_countEv.exit.i, %entry
  %sum.0.lcssa.i.i = phi i32 [ 0, %entry ], [ %add.us.i.i, %_ZNK7testing8TestCase17failed_test_countEv.exit.i ]
  ret i32 %sum.0.lcssa.i.i
}